; Function Attrs: nounwind uwtable
define zeroext range(i8 0, 2) i8 @l_Lean_IR_HasIndex_visitParams(ptr noundef %0, ptr noundef readonly captures(none) %1) local_unnamed_addr #0 {
lean_nat_lt.exit:
  %2 = getelementptr i8, ptr %1, i64 8
  %.val = load i64, ptr %2, align 8, !tbaa !17
  %.mask = and i64 %.val, 9223372036854775807
  %.not = icmp eq i64 %.mask, 0
  br i1 %.not, label %lean_dec.exit13, label %lean_dec.exit

lean_dec.exit:                                    ; preds = %lean_nat_lt.exit
  %3 = tail call zeroext i8 @l_Array_anyMUnsafe_any___at_Lean_IR_HasIndex_visitParams___spec__1(ptr noundef %0, ptr noundef nonnull %1, i64 noundef 0, i64 noundef %.mask)
  br label %lean_dec.exit13

lean_dec.exit13:                                  ; preds = %lean_nat_lt.exit, %lean_dec.exit
  %.0 = phi i8 [ %3, %lean_dec.exit ], [ 0, %lean_nat_lt.exit ]
  ret i8 %.0
}